EXPORTS
	_Z16CreateTestSuiteLv @ 1 NONAME
	_ZN27CMccCodecInformationFactory23CreateCodecInformationLE7TFourCC @ 2 NONAME
	_ZN27CMccCodecInformationFactory23CreateCodecInformationLERK6TDesC8 @ 3 NONAME
	_ZN27CMccCodecInformationFactory4NewLEv @ 4 NONAME
	_ZTI11CMceMsgBase @ 5 NONAME ; #<TI>#
	_ZTI11CMceSrvSink @ 6 NONAME ; #<TI>#
	_ZTI12CMceComCodec @ 7 NONAME ; #<TI>#
	_ZTI13CMceSrvSource @ 8 NONAME ; #<TI>#
	_ZTI13CMceSrvStream @ 9 NONAME ; #<TI>#
	_ZTI14CMceComCnCodec @ 10 NONAME ; #<TI>#
	_ZTI14CMceComRtpSink @ 11 NONAME ; #<TI>#
	_ZTI14CMceComSession @ 12 NONAME ; #<TI>#
	_ZTI14CMceMsgSIPData @ 13 NONAME ; #<TI>#
	_ZTI14CMceSdpSession @ 14 NONAME ; #<TI>#
	_ZTI15CMceComAMRCodec @ 15 NONAME ; #<TI>#
	_ZTI15CMceComAvcCodec @ 16 NONAME ; #<TI>#
	_ZTI15CMceComEndpoint @ 17 NONAME ; #<TI>#
	_ZTI15CMceComFileSink @ 18 NONAME ; #<TI>#
	_ZTI15CMceComRedCodec @ 19 NONAME ; #<TI>#
	_ZTI15CMceMsgSIPEvent @ 20 NONAME ; #<TI>#
	_ZTI15CMceMsgSIPReply @ 21 NONAME ; #<TI>#
	_ZTI15CMceSrvEndpoint @ 22 NONAME ; #<TI>#
	_ZTI15UT_CMceComCodec @ 23 NONAME ; #<TI>#
	_ZTI15UT_MceComSerial @ 24 NONAME ; #<TI>#
	_ZTI16CMceComDtmfCodec @ 25 NONAME ; #<TI>#
	_ZTI16CMceComG711Codec @ 26 NONAME ; #<TI>#
	_ZTI16CMceComG729Codec @ 27 NONAME ; #<TI>#
	_ZTI16CMceComH263Codec @ 28 NONAME ; #<TI>#
	_ZTI16CMceComMediaSink @ 29 NONAME ; #<TI>#
	_ZTI16CMceComMicSource @ 30 NONAME ; #<TI>#
	_ZTI16CMceComRtpSource @ 31 NONAME ; #<TI>#
	_ZTI16CMceComiLBCCodec @ 32 NONAME ; #<TI>#
	_ZTI16CMceMediaManager @ 33 NONAME ; #<TI>#
	_ZTI16CMceMsgTextArray @ 34 NONAME ; #<TI>#
	_ZTI16UT_CMceComAvSink @ 35 NONAME ; #<TI>#
	_ZTI16UT_MceComFactory @ 36 NONAME ; #<TI>#
	_ZTI17CMceComAMRWbCodec @ 37 NONAME ; #<TI>#
	_ZTI17CMceComAudioCodec @ 38 NONAME ; #<TI>#
	_ZTI17CMceComFileSource @ 39 NONAME ; #<TI>#
	_ZTI17CMceComVideoCodec @ 40 NONAME ; #<TI>#
	_ZTI17CMceMsgSIPRequest @ 41 NONAME ; #<TI>#
	_ZTI17UT_CMceComCnCodec @ 42 NONAME ; #<TI>#
	_ZTI17UT_CMceComRtpSink @ 43 NONAME ; #<TI>#
	_ZTI17UT_CMceComSession @ 44 NONAME ; #<TI>#
	_ZTI18CMccControllerStub @ 45 NONAME ; #<TI>#
	_ZTI18CMceComAudioStream @ 46 NONAME ; #<TI>#
	_ZTI18CMceComDisplaySink @ 47 NONAME ; #<TI>#
	_ZTI18CMceComMediaSource @ 48 NONAME ; #<TI>#
	_ZTI18CMceComMediaStream @ 49 NONAME ; #<TI>#
	_ZTI18CMceComSpeakerSink @ 50 NONAME ; #<TI>#
	_ZTI18CMceComVideoStream @ 51 NONAME ; #<TI>#
	_ZTI18UT_CMceComAMRCodec @ 52 NONAME ; #<TI>#
	_ZTI18UT_CMceComAvcCodec @ 53 NONAME ; #<TI>#
	_ZTI18UT_CMceComEndpoint @ 54 NONAME ; #<TI>#
	_ZTI18UT_CMceComFileSink @ 55 NONAME ; #<TI>#
	_ZTI18UT_CMceComRedCodec @ 56 NONAME ; #<TI>#
	_ZTI19CMceComCameraSource @ 57 NONAME ; #<TI>#
	_ZTI19CMceComStreamBundle @ 58 NONAME ; #<TI>#
	_ZTI19UT_CMceComDtmfCodec @ 59 NONAME ; #<TI>#
	_ZTI19UT_CMceComG711Codec @ 60 NONAME ; #<TI>#
	_ZTI19UT_CMceComG729Codec @ 61 NONAME ; #<TI>#
	_ZTI19UT_CMceComH263Codec @ 62 NONAME ; #<TI>#
	_ZTI19UT_CMceComMediaSink @ 63 NONAME ; #<TI>#
	_ZTI19UT_CMceComMicSource @ 64 NONAME ; #<TI>#
	_ZTI19UT_CMceComRtpSource @ 65 NONAME ; #<TI>#
	_ZTI19UT_CMceComiLBCCodec @ 66 NONAME ; #<TI>#
	_ZTI20CMccCodecInformation @ 67 NONAME ; #<TI>#
	_ZTI20UT_CMceComAMRWbCodec @ 68 NONAME ; #<TI>#
	_ZTI20UT_CMceComAudioCodec @ 69 NONAME ; #<TI>#
	_ZTI20UT_CMceComFileSource @ 70 NONAME ; #<TI>#
	_ZTI20UT_CMceComVideoCodec @ 71 NONAME ; #<TI>#
	_ZTI21UT_CMceComAudioStream @ 72 NONAME ; #<TI>#
	_ZTI21UT_CMceComDisplaySink @ 73 NONAME ; #<TI>#
	_ZTI21UT_CMceComMediaSource @ 74 NONAME ; #<TI>#
	_ZTI21UT_CMceComMediaStream @ 75 NONAME ; #<TI>#
	_ZTI21UT_CMceComSpeakerSink @ 76 NONAME ; #<TI>#
	_ZTI21UT_CMceComVideoStream @ 77 NONAME ; #<TI>#
	_ZTI22UT_CMceComCameraSource @ 78 NONAME ; #<TI>#
	_ZTI22UT_CMceComStreamBundle @ 79 NONAME ; #<TI>#
	_ZTI27CMccCodecInformationFactory @ 80 NONAME ; #<TI>#
	_ZTI30UT_MMceComSerializationContext @ 81 NONAME ; #<TI>#
	_ZTV11CMceMsgBase @ 82 NONAME ; #<VT>#
	_ZTV11CMceSrvSink @ 83 NONAME ; #<VT>#
	_ZTV12CMceComCodec @ 84 NONAME ; #<VT>#
	_ZTV13CMceSrvSource @ 85 NONAME ; #<VT>#
	_ZTV13CMceSrvStream @ 86 NONAME ; #<VT>#
	_ZTV14CMceComCnCodec @ 87 NONAME ; #<VT>#
	_ZTV14CMceComRtpSink @ 88 NONAME ; #<VT>#
	_ZTV14CMceComSession @ 89 NONAME ; #<VT>#
	_ZTV14CMceMsgSIPData @ 90 NONAME ; #<VT>#
	_ZTV14CMceSdpSession @ 91 NONAME ; #<VT>#
	_ZTV15CMceComAMRCodec @ 92 NONAME ; #<VT>#
	_ZTV15CMceComAvcCodec @ 93 NONAME ; #<VT>#
	_ZTV15CMceComEndpoint @ 94 NONAME ; #<VT>#
	_ZTV15CMceComFileSink @ 95 NONAME ; #<VT>#
	_ZTV15CMceComRedCodec @ 96 NONAME ; #<VT>#
	_ZTV15CMceMsgSIPEvent @ 97 NONAME ; #<VT>#
	_ZTV15CMceMsgSIPReply @ 98 NONAME ; #<VT>#
	_ZTV15CMceSrvEndpoint @ 99 NONAME ; #<VT>#
	_ZTV15UT_CMceComCodec @ 100 NONAME ; #<VT>#
	_ZTV15UT_MceComSerial @ 101 NONAME ; #<VT>#
	_ZTV16CMceComDtmfCodec @ 102 NONAME ; #<VT>#
	_ZTV16CMceComG711Codec @ 103 NONAME ; #<VT>#
	_ZTV16CMceComG729Codec @ 104 NONAME ; #<VT>#
	_ZTV16CMceComH263Codec @ 105 NONAME ; #<VT>#
	_ZTV16CMceComMediaSink @ 106 NONAME ; #<VT>#
	_ZTV16CMceComMicSource @ 107 NONAME ; #<VT>#
	_ZTV16CMceComRtpSource @ 108 NONAME ; #<VT>#
	_ZTV16CMceComiLBCCodec @ 109 NONAME ; #<VT>#
	_ZTV16CMceMediaManager @ 110 NONAME ; #<VT>#
	_ZTV16CMceMsgTextArray @ 111 NONAME ; #<VT>#
	_ZTV16UT_CMceComAvSink @ 112 NONAME ; #<VT>#
	_ZTV16UT_MceComFactory @ 113 NONAME ; #<VT>#
	_ZTV17CMceComAMRWbCodec @ 114 NONAME ; #<VT>#
	_ZTV17CMceComAudioCodec @ 115 NONAME ; #<VT>#
	_ZTV17CMceComFileSource @ 116 NONAME ; #<VT>#
	_ZTV17CMceComVideoCodec @ 117 NONAME ; #<VT>#
	_ZTV17CMceMsgSIPRequest @ 118 NONAME ; #<VT>#
	_ZTV17UT_CMceComCnCodec @ 119 NONAME ; #<VT>#
	_ZTV17UT_CMceComRtpSink @ 120 NONAME ; #<VT>#
	_ZTV17UT_CMceComSession @ 121 NONAME ; #<VT>#
	_ZTV18CMccControllerStub @ 122 NONAME ; #<VT>#
	_ZTV18CMceComAudioStream @ 123 NONAME ; #<VT>#
	_ZTV18CMceComDisplaySink @ 124 NONAME ; #<VT>#
	_ZTV18CMceComMediaSource @ 125 NONAME ; #<VT>#
	_ZTV18CMceComMediaStream @ 126 NONAME ; #<VT>#
	_ZTV18CMceComSpeakerSink @ 127 NONAME ; #<VT>#
	_ZTV18CMceComVideoStream @ 128 NONAME ; #<VT>#
	_ZTV18UT_CMceComAMRCodec @ 129 NONAME ; #<VT>#
	_ZTV18UT_CMceComAvcCodec @ 130 NONAME ; #<VT>#
	_ZTV18UT_CMceComEndpoint @ 131 NONAME ; #<VT>#
	_ZTV18UT_CMceComFileSink @ 132 NONAME ; #<VT>#
	_ZTV18UT_CMceComRedCodec @ 133 NONAME ; #<VT>#
	_ZTV19CMceComCameraSource @ 134 NONAME ; #<VT>#
	_ZTV19CMceComStreamBundle @ 135 NONAME ; #<VT>#
	_ZTV19UT_CMceComDtmfCodec @ 136 NONAME ; #<VT>#
	_ZTV19UT_CMceComG711Codec @ 137 NONAME ; #<VT>#
	_ZTV19UT_CMceComG729Codec @ 138 NONAME ; #<VT>#
	_ZTV19UT_CMceComH263Codec @ 139 NONAME ; #<VT>#
	_ZTV19UT_CMceComMediaSink @ 140 NONAME ; #<VT>#
	_ZTV19UT_CMceComMicSource @ 141 NONAME ; #<VT>#
	_ZTV19UT_CMceComRtpSource @ 142 NONAME ; #<VT>#
	_ZTV19UT_CMceComiLBCCodec @ 143 NONAME ; #<VT>#
	_ZTV20CMccCodecInformation @ 144 NONAME ; #<VT>#
	_ZTV20UT_CMceComAMRWbCodec @ 145 NONAME ; #<VT>#
	_ZTV20UT_CMceComAudioCodec @ 146 NONAME ; #<VT>#
	_ZTV20UT_CMceComFileSource @ 147 NONAME ; #<VT>#
	_ZTV20UT_CMceComVideoCodec @ 148 NONAME ; #<VT>#
	_ZTV21UT_CMceComAudioStream @ 149 NONAME ; #<VT>#
	_ZTV21UT_CMceComDisplaySink @ 150 NONAME ; #<VT>#
	_ZTV21UT_CMceComMediaSource @ 151 NONAME ; #<VT>#
	_ZTV21UT_CMceComMediaStream @ 152 NONAME ; #<VT>#
	_ZTV21UT_CMceComSpeakerSink @ 153 NONAME ; #<VT>#
	_ZTV21UT_CMceComVideoStream @ 154 NONAME ; #<VT>#
	_ZTV22UT_CMceComCameraSource @ 155 NONAME ; #<VT>#
	_ZTV22UT_CMceComStreamBundle @ 156 NONAME ; #<VT>#
	_ZTV27CMccCodecInformationFactory @ 157 NONAME ; #<VT>#
	_ZTV30UT_MMceComSerializationContext @ 158 NONAME ; #<VT>#

